; ModuleID = '42/82.c'
source_filename = "42/82.c"
target datalayout = "e-m:e-p270:32:32-p271:32:32-p272:64:64-i64:64-f80:128-n8:16:32:64-S128"
target triple = "x86_64-pc-linux-gnu"

@.str = private unnamed_addr constant [3 x i8] c"%d\00", align 1
@.str.1 = private unnamed_addr constant [4 x i8] c"%d \00", align 1

; Function Attrs: noinline nounwind uwtable
define dso_local i32 @main() #0 {
  %1 = alloca i32, align 4
  %2 = alloca [100000 x i32], align 16
  %3 = alloca i32, align 4
  %4 = alloca i32, align 4
  %5 = alloca i32, align 4
  %6 = alloca i32, align 4
  %7 = alloca i32, align 4
  store i32 0, i32* %1, align 4
  %8 = call i32 (i8*, ...) @__isoc99_scanf(i8* getelementptr inbounds ([3 x i8], [3 x i8]* @.str, i64 0, i64 0), i32* %4)
  store i32 0, i32* %5, align 4
  br label %9

9:                                                ; preds = %18, %0
  %10 = load i32, i32* %5, align 4
  %11 = load i32, i32* %4, align 4
  %12 = icmp slt i32 %10, %11
  br i1 %12, label %13, label %21

13:                                               ; preds = %9
  %14 = load i32, i32* %5, align 4
  %15 = sext i32 %14 to i64
  %16 = getelementptr inbounds [100000 x i32], [100000 x i32]* %2, i64 0, i64 %15
  %17 = call i32 (i8*, ...) @__isoc99_scanf(i8* getelementptr inbounds ([3 x i8], [3 x i8]* @.str, i64 0, i64 0), i32* %16)
  br label %18

18:                                               ; preds = %13
  %19 = load i32, i32* %5, align 4
  %20 = add nsw i32 %19, 1
  store i32 %20, i32* %5, align 4
  br label %9

21:                                               ; preds = %9
  %22 = call i32 (i8*, ...) @__isoc99_scanf(i8* getelementptr inbounds ([3 x i8], [3 x i8]* @.str, i64 0, i64 0), i32* %3)
  store i32 0, i32* %7, align 4
  store i32 0, i32* %5, align 4
  br label %23

23:                                               ; preds = %74, %21
  %24 = load i32, i32* %5, align 4
  %25 = load i32, i32* %4, align 4
  %26 = load i32, i32* %7, align 4
  %27 = sub nsw i32 %25, %26
  %28 = icmp slt i32 %24, %27
  br i1 %28, label %29, label %77

29:                                               ; preds = %23
  br label %30

30:                                               ; preds = %72, %29
  %31 = load i32, i32* %5, align 4
  %32 = sext i32 %31 to i64
  %33 = getelementptr inbounds [100000 x i32], [100000 x i32]* %2, i64 0, i64 %32
  %34 = load i32, i32* %33, align 4
  %35 = load i32, i32* %3, align 4
  %36 = icmp eq i32 %34, %35
  br i1 %36, label %37, label %73

37:                                               ; preds = %30
  store i32 0, i32* %6, align 4
  br label %38

38:                                               ; preds = %60, %37
  %39 = load i32, i32* %6, align 4
  %40 = load i32, i32* %4, align 4
  %41 = load i32, i32* %7, align 4
  %42 = sub nsw i32 %40, %41
  %43 = load i32, i32* %5, align 4
  %44 = sub nsw i32 %42, %43
  %45 = sub nsw i32 %44, 1
  %46 = icmp slt i32 %39, %45
  br i1 %46, label %47, label %63

47:                                               ; preds = %38
  %48 = load i32, i32* %5, align 4
  %49 = load i32, i32* %6, align 4
  %50 = add nsw i32 %48, %49
  %51 = add nsw i32 %50, 1
  %52 = sext i32 %51 to i64
  %53 = getelementptr inbounds [100000 x i32], [100000 x i32]* %2, i64 0, i64 %52
  %54 = load i32, i32* %53, align 4
  %55 = load i32, i32* %5, align 4
  %56 = load i32, i32* %6, align 4
  %57 = add nsw i32 %55, %56
  %58 = sext i32 %57 to i64
  %59 = getelementptr inbounds [100000 x i32], [100000 x i32]* %2, i64 0, i64 %58
  store i32 %54, i32* %59, align 4
  br label %60

60:                                               ; preds = %47
  %61 = load i32, i32* %6, align 4
  %62 = add nsw i32 %61, 1
  store i32 %62, i32* %6, align 4
  br label %38

63:                                               ; preds = %38
  %64 = load i32, i32* %7, align 4
  %65 = add nsw i32 %64, 1
  store i32 %65, i32* %7, align 4
  %66 = load i32, i32* %5, align 4
  %67 = load i32, i32* %4, align 4
  %68 = load i32, i32* %7, align 4
  %69 = sub nsw i32 %67, %68
  %70 = icmp sge i32 %66, %69
  br i1 %70, label %71, label %72

71:                                               ; preds = %63
  br label %73

72:                                               ; preds = %63
  br label %30

73:                                               ; preds = %71, %30
  br label %74

74:                                               ; preds = %73
  %75 = load i32, i32* %5, align 4
  %76 = add nsw i32 %75, 1
  store i32 %76, i32* %5, align 4
  br label %23

77:                                               ; preds = %23
  store i32 0, i32* %5, align 4
  br label %78

78:                                               ; preds = %91, %77
  %79 = load i32, i32* %5, align 4
  %80 = load i32, i32* %4, align 4
  %81 = load i32, i32* %7, align 4
  %82 = sub nsw i32 %80, %81
  %83 = sub nsw i32 %82, 1
  %84 = icmp slt i32 %79, %83
  br i1 %84, label %85, label %94

85:                                               ; preds = %78
  %86 = load i32, i32* %5, align 4
  %87 = sext i32 %86 to i64
  %88 = getelementptr inbounds [100000 x i32], [100000 x i32]* %2, i64 0, i64 %87
  %89 = load i32, i32* %88, align 4
  %90 = call i32 (i8*, ...) @printf(i8* getelementptr inbounds ([4 x i8], [4 x i8]* @.str.1, i64 0, i64 0), i32 %89)
  br label %91

91:                                               ; preds = %85
  %92 = load i32, i32* %5, align 4
  %93 = add nsw i32 %92, 1
  store i32 %93, i32* %5, align 4
  br label %78

94:                                               ; preds = %78
  %95 = load i32, i32* %5, align 4
  %96 = sext i32 %95 to i64
  %97 = getelementptr inbounds [100000 x i32], [100000 x i32]* %2, i64 0, i64 %96
  %98 = load i32, i32* %97, align 4
  %99 = call i32 (i8*, ...) @printf(i8* getelementptr inbounds ([3 x i8], [3 x i8]* @.str, i64 0, i64 0), i32 %98)
  ret i32 0
}

declare dso_local i32 @__isoc99_scanf(i8*, ...) #1

declare dso_local i32 @printf(i8*, ...) #1


!llvm.module.flags = !{!0}
!llvm.ident = !{!1}

!0 = !{i32 1, !"wchar_size", i32 4}
!1 = !{!"clang version 10.0.0-4ubuntu1 "}
